; Function Attrs: mustprogress uwtable
define void @_ZN2cv5utils7logging14setLogTagLevelEPKcNS1_8LogLevelE(ptr noundef %0, i32 noundef %1) local_unnamed_addr #3 personality ptr @__gxx_personality_v0 {
  %3 = alloca %"class.std::__cxx11::basic_string", align 8
  %4 = alloca %"class.std::allocator.31", align 1
  %.not = icmp eq ptr %0, null
  br i1 %.not, label %18, label %5

5:                                                ; preds = %2
  %6 = load atomic i8, ptr @_ZGVZN2cv5utils7logging8internalL16getLogTagManagerEvE21logTagManagerInstance acquire, align 8
  %7 = icmp eq i8 %6, 0
  br i1 %7, label %8, label %_ZN2cv5utils7logging8internalL16getLogTagManagerEv.exit, !prof !4

8:                                                ; preds = %5
  %9 = tail call i32 @__cxa_guard_acquire(ptr nonnull @_ZGVZN2cv5utils7logging8internalL16getLogTagManagerEvE21logTagManagerInstance) #8
  %.not.i = icmp eq i32 %9, 0
  br i1 %.not.i, label %_ZN2cv5utils7logging8internalL16getLogTagManagerEv.exit, label %10

10:                                               ; preds = %8
  %11 = invoke fastcc noundef nonnull align 8 dereferenceable(336) ptr @_ZN2cv5utils7logging8internalL26getGlobalLoggingInitStructEv()
          to label %12 unwind label %13

12:                                               ; preds = %10
  store ptr %11, ptr @_ZZN2cv5utils7logging8internalL16getLogTagManagerEvE21logTagManagerInstance, align 8
  tail call void @__cxa_guard_release(ptr nonnull @_ZGVZN2cv5utils7logging8internalL16getLogTagManagerEvE21logTagManagerInstance) #8
  br label %_ZN2cv5utils7logging8internalL16getLogTagManagerEv.exit

common.resume:                                    ; preds = %23, %13
  %common.resume.op = phi { ptr, i32 } [ %14, %13 ], [ %.pn, %23 ]
  resume { ptr, i32 } %common.resume.op

13:                                               ; preds = %10
  %14 = landingpad { ptr, i32 }
          cleanup
  tail call void @__cxa_guard_abort(ptr nonnull @_ZGVZN2cv5utils7logging8internalL16getLogTagManagerEvE21logTagManagerInstance) #8
  br label %common.resume

_ZN2cv5utils7logging8internalL16getLogTagManagerEv.exit: ; preds = %5, %8, %12
  %15 = load ptr, ptr @_ZZN2cv5utils7logging8internalL16getLogTagManagerEvE21logTagManagerInstance, align 8
  call void @_ZNSaIcEC1Ev(ptr noundef nonnull align 1 dereferenceable(1) %4) #8
  invoke void @_ZNSt7__cxx1112basic_stringIcSt11char_traitsIcESaIcEEC1EPKcRKS3_(ptr noundef nonnull align 8 dereferenceable(32) %3, ptr noundef nonnull %0, ptr noundef nonnull align 1 dereferenceable(1) %4)
          to label %16 unwind label %19

16:                                               ; preds = %_ZN2cv5utils7logging8internalL16getLogTagManagerEv.exit
  invoke void @_ZN2cv5utils7logging13LogTagManager18setLevelByFullNameERKNSt7__cxx1112basic_stringIcSt11char_traitsIcESaIcEEENS1_8LogLevelE(ptr noundef nonnull align 8 dereferenceable(336) %15, ptr noundef nonnull align 8 dereferenceable(32) %3, i32 noundef %1)
          to label %17 unwind label %21

17:                                               ; preds = %16
  call void @_ZNSt7__cxx1112basic_stringIcSt11char_traitsIcESaIcEED1Ev(ptr noundef nonnull align 8 dereferenceable(32) %3) #8
  call void @_ZNSaIcED1Ev(ptr noundef nonnull align 1 dereferenceable(1) %4) #8
  br label %18

18:                                               ; preds = %2, %17
  ret void

19:                                               ; preds = %_ZN2cv5utils7logging8internalL16getLogTagManagerEv.exit
  %20 = landingpad { ptr, i32 }
          cleanup
  br label %23

21:                                               ; preds = %16
  %22 = landingpad { ptr, i32 }
          cleanup
  call void @_ZNSt7__cxx1112basic_stringIcSt11char_traitsIcESaIcEED1Ev(ptr noundef nonnull align 8 dereferenceable(32) %3) #8
  br label %23

23:                                               ; preds = %21, %19
  %.pn = phi { ptr, i32 } [ %22, %21 ], [ %20, %19 ]
  call void @_ZNSaIcED1Ev(ptr noundef nonnull align 1 dereferenceable(1) %4) #8
  br label %common.resume
}